(lp0
(lp1
I1
aI1
aI0
aI1
aI1
aI1
aI1
aa(lp2
I2
aI1
aI0
aI1
aI0
aI1
aI1
aa(lp3
I3
aI1
aI0
aI1
aI0
aI1
aI1
aa(lp4
I4
aI1
aI0
aI1
aI1
aI1
aI1
aa(lp5
I5
aI1
aI0
aI1
aI0
aI1
aI1
aa(lp6
I6
aI1
aI0
aI1
aI0
aI1
aI1
aa(lp7
I7
aI1
aI0
aI1
aI0
aI1
aI1
aa(lp8
I8
aI1
aI0
aI1
aI0
aI1
aI1
aa(lp9
I9
aI1
aI0
aI1
aI1
aI1
aI1
aa(lp10
I10
aI1
aI1
aI1
aI1
aI0
aI1
aa.